target datalayout = "e-m:e-p270:32:32-p271:32:32-p272:64:64-i64:64-i128:128-f80:128-n8:16:32:64-S128"
target triple = "x86_64-unknown-linux-gnu"

%"class.hermes::Type" = type { i16, i16 }
%"class.llvh::ilist_node_with_parent" = type { %"class.llvh::ilist_node" }
%"class.llvh::ilist_node" = type { %"class.llvh::ilist_node_impl" }
%"class.llvh::ilist_node_impl" = type { %"class.llvh::ilist_node_base" }
%"class.llvh::ilist_node_base" = type { ptr, ptr }
%"class.hermes::Value" = type { i8, %"class.hermes::Type", %"class.llvh::SmallVector" }
%"class.llvh::SmallVector" = type { %"class.llvh::SmallVectorImpl", %"struct.llvh::SmallVectorStorage" }
%"class.llvh::SmallVectorImpl" = type { %"class.llvh::SmallVectorTemplateBase" }
%"class.llvh::SmallVectorTemplateBase" = type { %"class.llvh::SmallVectorTemplateCommon" }
%"class.llvh::SmallVectorTemplateCommon" = type { %"class.llvh::SmallVectorBase" }
%"class.llvh::SmallVectorBase" = type { ptr, i32, i32 }
%"struct.llvh::SmallVectorStorage" = type { [2 x %"struct.llvh::AlignedCharArrayUnion"] }
%"struct.llvh::AlignedCharArrayUnion" = type { %"struct.llvh::AlignedCharArray" }
%"struct.llvh::AlignedCharArray" = type { [8 x i8] }
%"class.llvh::SmallVector.0" = type { %"class.llvh::SmallVectorImpl.1", %"struct.llvh::SmallVectorStorage.4" }
%"class.llvh::SmallVectorImpl.1" = type { %"class.llvh::SmallVectorTemplateBase.2" }
%"class.llvh::SmallVectorTemplateBase.2" = type { %"class.llvh::SmallVectorTemplateCommon.3" }
%"class.llvh::SmallVectorTemplateCommon.3" = type { %"class.llvh::SmallVectorBase" }
%"struct.llvh::SmallVectorStorage.4" = type { [2 x %"struct.llvh::AlignedCharArrayUnion.5"] }
%"struct.llvh::AlignedCharArrayUnion.5" = type { %"struct.llvh::AlignedCharArray.6" }
%"struct.llvh::AlignedCharArray.6" = type { [16 x i8] }
%"class.llvh::SMLoc" = type { ptr }
%"class.hermes::Instruction" = type <{ %"class.llvh::ilist_node_with_parent", %"class.hermes::Value", ptr, %"class.llvh::SmallVector.0", ptr, %"class.llvh::SMLoc", i32, [4 x i8] }>

; Function Attrs: mustprogress nounwind uwtable
define linkonce_odr hidden noundef ptr @_ZNK4llvh25SmallVectorTemplateCommonIPN6hermes11InstructionEvE10getFirstElEv(ptr noundef nonnull align 8 dereferenceable(16) %this) #0 comdat align 2 {
entry:
  %this.addr = alloca ptr, align 8
  store ptr %this, ptr %this.addr, align 8
  %this1 = load ptr, ptr %this.addr, align 8
  %add.ptr = getelementptr inbounds i8, ptr %this1, i64 16
  ret ptr %add.ptr
}

; Function Attrs: mustprogress nounwind uwtable
define linkonce_odr hidden void @_ZN4llvh15SmallVectorBaseC2EPvm(ptr noundef nonnull align 8 dereferenceable(16) %this, ptr noundef %FirstEl, i64 noundef %Capacity) unnamed_addr #0 comdat align 2 {
entry:
  %this.addr = alloca ptr, align 8
  %FirstEl.addr = alloca ptr, align 8
  %Capacity.addr = alloca i64, align 8
  store ptr %this, ptr %this.addr, align 8
  store ptr %FirstEl, ptr %FirstEl.addr, align 8
  store i64 %Capacity, ptr %Capacity.addr, align 8
  %this1 = load ptr, ptr %this.addr, align 8
  %BeginX = getelementptr inbounds %"class.llvh::SmallVectorBase", ptr %this1, i32 0, i32 0
  %0 = load ptr, ptr %FirstEl.addr, align 8
  store ptr %0, ptr %BeginX, align 8
  %Size = getelementptr inbounds %"class.llvh::SmallVectorBase", ptr %this1, i32 0, i32 1
  store i32 0, ptr %Size, align 8
  %Capacity2 = getelementptr inbounds %"class.llvh::SmallVectorBase", ptr %this1, i32 0, i32 2
  %1 = load i64, ptr %Capacity.addr, align 8
  %conv = trunc i64 %1 to i32
  store i32 %conv, ptr %Capacity2, align 4
  ret void
}

; Function Attrs: mustprogress nounwind uwtable
define linkonce_odr hidden noundef ptr @_ZNK4llvh25SmallVectorTemplateCommonISt4pairIPN6hermes5ValueEjEvE10getFirstElEv(ptr noundef nonnull align 8 dereferenceable(16) %this) #0 comdat align 2 {
entry:
  %this.addr = alloca ptr, align 8
  store ptr %this, ptr %this.addr, align 8
  %this1 = load ptr, ptr %this.addr, align 8
  %add.ptr = getelementptr inbounds i8, ptr %this1, i64 16
  ret ptr %add.ptr
}

; Function Attrs: mustprogress nounwind uwtable
define linkonce_odr hidden void @_ZN4llvh25SmallVectorTemplateCommonIPN6hermes11InstructionEvEC2Em(ptr noundef nonnull align 8 dereferenceable(16) %this, i64 noundef %Size) unnamed_addr #0 comdat align 2 {
entry:
  %this.addr = alloca ptr, align 8
  %Size.addr = alloca i64, align 8
  store ptr %this, ptr %this.addr, align 8
  store i64 %Size, ptr %Size.addr, align 8
  %this1 = load ptr, ptr %this.addr, align 8
  %call = call noundef ptr @_ZNK4llvh25SmallVectorTemplateCommonIPN6hermes11InstructionEvE10getFirstElEv(ptr noundef nonnull align 8 dereferenceable(16) %this1)
  %0 = load i64, ptr %Size.addr, align 8
  call void @_ZN4llvh15SmallVectorBaseC2EPvm(ptr noundef nonnull align 8 dereferenceable(16) %this1, ptr noundef %call, i64 noundef %0)
  ret void
}

; Function Attrs: mustprogress nounwind uwtable
define linkonce_odr hidden void @_ZN4llvh25SmallVectorTemplateCommonISt4pairIPN6hermes5ValueEjEvEC2Em(ptr noundef nonnull align 8 dereferenceable(16) %this, i64 noundef %Size) unnamed_addr #0 comdat align 2 {
entry:
  %this.addr = alloca ptr, align 8
  %Size.addr = alloca i64, align 8
  store ptr %this, ptr %this.addr, align 8
  store i64 %Size, ptr %Size.addr, align 8
  %this1 = load ptr, ptr %this.addr, align 8
  %call = call noundef ptr @_ZNK4llvh25SmallVectorTemplateCommonISt4pairIPN6hermes5ValueEjEvE10getFirstElEv(ptr noundef nonnull align 8 dereferenceable(16) %this1)
  %0 = load i64, ptr %Size.addr, align 8
  call void @_ZN4llvh15SmallVectorBaseC2EPvm(ptr noundef nonnull align 8 dereferenceable(16) %this1, ptr noundef %call, i64 noundef %0)
  ret void
}

; Function Attrs: mustprogress nounwind uwtable
define linkonce_odr hidden void @_ZN4llvh23SmallVectorTemplateBaseIPN6hermes11InstructionELb1EEC2Em(ptr noundef nonnull align 8 dereferenceable(16) %this, i64 noundef %Size) unnamed_addr #0 comdat align 2 {
entry:
  %this.addr = alloca ptr, align 8
  %Size.addr = alloca i64, align 8
  store ptr %this, ptr %this.addr, align 8
  store i64 %Size, ptr %Size.addr, align 8
  %this1 = load ptr, ptr %this.addr, align 8
  %0 = load i64, ptr %Size.addr, align 8
  call void @_ZN4llvh25SmallVectorTemplateCommonIPN6hermes11InstructionEvEC2Em(ptr noundef nonnull align 8 dereferenceable(16) %this1, i64 noundef %0)
  ret void
}

; Function Attrs: mustprogress nounwind uwtable
define linkonce_odr hidden void @_ZN4llvh15ilist_node_baseILb0EEC2Ev(ptr noundef nonnull align 8 dereferenceable(16) %this) unnamed_addr #0 comdat align 2 {
entry:
  %this.addr = alloca ptr, align 8
  store ptr %this, ptr %this.addr, align 8
  %this1 = load ptr, ptr %this.addr, align 8
  %Prev = getelementptr inbounds %"class.llvh::ilist_node_base", ptr %this1, i32 0, i32 0
  store ptr null, ptr %Prev, align 8
  %Next = getelementptr inbounds %"class.llvh::ilist_node_base", ptr %this1, i32 0, i32 1
  store ptr null, ptr %Next, align 8
  ret void
}

; Function Attrs: mustprogress nounwind uwtable
define linkonce_odr hidden void @_ZN4llvh23SmallVectorTemplateBaseISt4pairIPN6hermes5ValueEjELb1EEC2Em(ptr noundef nonnull align 8 dereferenceable(16) %this, i64 noundef %Size) unnamed_addr #0 comdat align 2 {
entry:
  %this.addr = alloca ptr, align 8
  %Size.addr = alloca i64, align 8
  store ptr %this, ptr %this.addr, align 8
  store i64 %Size, ptr %Size.addr, align 8
  %this1 = load ptr, ptr %this.addr, align 8
  %0 = load i64, ptr %Size.addr, align 8
  call void @_ZN4llvh25SmallVectorTemplateCommonISt4pairIPN6hermes5ValueEjEvEC2Em(ptr noundef nonnull align 8 dereferenceable(16) %this1, i64 noundef %0)
  ret void
}

; Function Attrs: mustprogress nounwind uwtable
define linkonce_odr hidden void @_ZN4llvh15SmallVectorImplIPN6hermes11InstructionEEC2Ej(ptr noundef nonnull align 8 dereferenceable(16) %this, i32 noundef %N) unnamed_addr #0 comdat align 2 {
entry:
  %this.addr = alloca ptr, align 8
  %N.addr = alloca i32, align 4
  store ptr %this, ptr %this.addr, align 8
  store i32 %N, ptr %N.addr, align 4
  %this1 = load ptr, ptr %this.addr, align 8
  %0 = load i32, ptr %N.addr, align 4
  %conv = zext i32 %0 to i64
  call void @_ZN4llvh23SmallVectorTemplateBaseIPN6hermes11InstructionELb1EEC2Em(ptr noundef nonnull align 8 dereferenceable(16) %this1, i64 noundef %conv)
  ret void
}

; Function Attrs: mustprogress nounwind uwtable
define linkonce_odr hidden void @_ZN4llvh15ilist_node_implINS_12ilist_detail12node_optionsIN6hermes11InstructionELb0ELb0EvEEEC2Ev(ptr noundef nonnull align 8 dereferenceable(16) %this) unnamed_addr #0 comdat align 2 {
entry:
  %this.addr = alloca ptr, align 8
  store ptr %this, ptr %this.addr, align 8
  %this1 = load ptr, ptr %this.addr, align 8
  call void @_ZN4llvh15ilist_node_baseILb0EEC2Ev(ptr noundef nonnull align 8 dereferenceable(16) %this1) #6
  ret void
}

; Function Attrs: mustprogress nounwind uwtable
define linkonce_odr hidden void @_ZN4llvh15SmallVectorImplISt4pairIPN6hermes5ValueEjEEC2Ej(ptr noundef nonnull align 8 dereferenceable(16) %this, i32 noundef %N) unnamed_addr #0 comdat align 2 {
entry:
  %this.addr = alloca ptr, align 8
  %N.addr = alloca i32, align 4
  store ptr %this, ptr %this.addr, align 8
  store i32 %N, ptr %N.addr, align 4
  %this1 = load ptr, ptr %this.addr, align 8
  %0 = load i32, ptr %N.addr, align 4
  %conv = zext i32 %0 to i64
  call void @_ZN4llvh23SmallVectorTemplateBaseISt4pairIPN6hermes5ValueEjELb1EEC2Em(ptr noundef nonnull align 8 dereferenceable(16) %this1, i64 noundef %conv)
  ret void
}

; Function Attrs: mustprogress nounwind uwtable
define linkonce_odr hidden void @_ZN4llvh11SmallVectorIPN6hermes11InstructionELj2EEC2Ev(ptr noundef nonnull align 8 dereferenceable(32) %this) unnamed_addr #0 comdat align 2 {
entry:
  %this.addr = alloca ptr, align 8
  store ptr %this, ptr %this.addr, align 8
  %this1 = load ptr, ptr %this.addr, align 8
  call void @_ZN4llvh15SmallVectorImplIPN6hermes11InstructionEEC2Ej(ptr noundef nonnull align 8 dereferenceable(16) %this1, i32 noundef 2)
  ret void
}

; Function Attrs: mustprogress nounwind uwtable
define linkonce_odr hidden void @_ZN6hermes4TypeC2Ev(ptr noundef nonnull align 2 dereferenceable(4) %this) unnamed_addr #0 comdat align 2 {
entry:
  %this.addr = alloca ptr, align 8
  store ptr %this, ptr %this.addr, align 8
  %this1 = load ptr, ptr %this.addr, align 8
  %bitmask_ = getelementptr inbounds %"class.hermes::Type", ptr %this1, i32 0, i32 0
  store i16 1023, ptr %bitmask_, align 2
  %numBitmask_ = getelementptr inbounds %"class.hermes::Type", ptr %this1, i32 0, i32 1
  store i16 7, ptr %numBitmask_, align 2
  ret void
}

; Function Attrs: mustprogress nounwind uwtable
define linkonce_odr hidden void @_ZN4llvh10ilist_nodeIN6hermes11InstructionEJEEC2Ev(ptr noundef nonnull align 8 dereferenceable(16) %this) unnamed_addr #0 comdat align 2 {
entry:
  %this.addr = alloca ptr, align 8
  store ptr %this, ptr %this.addr, align 8
  %this1 = load ptr, ptr %this.addr, align 8
  call void @_ZN4llvh15ilist_node_implINS_12ilist_detail12node_optionsIN6hermes11InstructionELb0ELb0EvEEEC2Ev(ptr noundef nonnull align 8 dereferenceable(16) %this1) #6
  ret void
}

; Function Attrs: mustprogress nounwind uwtable
define linkonce_odr hidden void @_ZN4llvh5SMLocC2Ev(ptr noundef nonnull align 8 dereferenceable(8) %this) unnamed_addr #0 comdat align 2 {
entry:
  %this.addr = alloca ptr, align 8
  store ptr %this, ptr %this.addr, align 8
  %this1 = load ptr, ptr %this.addr, align 8
  %Ptr = getelementptr inbounds %"class.llvh::SMLoc", ptr %this1, i32 0, i32 0
  store ptr null, ptr %Ptr, align 8
  ret void
}

; Function Attrs: mustprogress nounwind uwtable
define linkonce_odr hidden void @_ZN4llvh11SmallVectorISt4pairIPN6hermes5ValueEjELj2EEC2Ev(ptr noundef nonnull align 8 dereferenceable(48) %this) unnamed_addr #0 comdat align 2 {
entry:
  %this.addr = alloca ptr, align 8
  store ptr %this, ptr %this.addr, align 8
  %this1 = load ptr, ptr %this.addr, align 8
  call void @_ZN4llvh15SmallVectorImplISt4pairIPN6hermes5ValueEjEEC2Ej(ptr noundef nonnull align 8 dereferenceable(16) %this1, i32 noundef 2)
  ret void
}

; Function Attrs: mustprogress nounwind uwtable
define linkonce_odr hidden void @_ZN6hermes5ValueC2ENS_9ValueKindE(ptr noundef nonnull align 8 dereferenceable(40) %this, i8 noundef zeroext %k) unnamed_addr #0 comdat align 2 {
entry:
  %this.addr = alloca ptr, align 8
  %k.addr = alloca i8, align 1
  store ptr %this, ptr %this.addr, align 8
  store i8 %k, ptr %k.addr, align 1
  %this1 = load ptr, ptr %this.addr, align 8
  %valueType = getelementptr inbounds %"class.hermes::Value", ptr %this1, i32 0, i32 1
  call void @_ZN6hermes4TypeC2Ev(ptr noundef nonnull align 2 dereferenceable(4) %valueType) #6
  %Users = getelementptr inbounds %"class.hermes::Value", ptr %this1, i32 0, i32 2
  call void @_ZN4llvh11SmallVectorIPN6hermes11InstructionELj2EEC2Ev(ptr noundef nonnull align 8 dereferenceable(32) %Users)
  %0 = load i8, ptr %k.addr, align 1
  %Kind = getelementptr inbounds %"class.hermes::Value", ptr %this1, i32 0, i32 0
  store i8 %0, ptr %Kind, align 8
  ret void
}

; Function Attrs: mustprogress nounwind uwtable
define linkonce_odr hidden void @_ZN4llvh22ilist_node_with_parentIN6hermes11InstructionENS1_10BasicBlockEJEEC2Ev(ptr noundef nonnull align 8 dereferenceable(16) %this) unnamed_addr #0 comdat align 2 {
entry:
  %this.addr = alloca ptr, align 8
  store ptr %this, ptr %this.addr, align 8
  %this1 = load ptr, ptr %this.addr, align 8
  call void @_ZN4llvh10ilist_nodeIN6hermes11InstructionEJEEC2Ev(ptr noundef nonnull align 8 dereferenceable(16) %this1) #6
  ret void
}

; Function Attrs: mustprogress nounwind uwtable
define linkonce_odr hidden void @_ZN6hermes11InstructionC2ENS_9ValueKindE(ptr noundef nonnull align 8 dereferenceable(132) %this, i8 noundef zeroext %kind) unnamed_addr #0 comdat align 2 {
entry:
  %this.addr = alloca ptr, align 8
  %kind.addr = alloca i8, align 1
  store ptr %this, ptr %this.addr, align 8
  store i8 %kind, ptr %kind.addr, align 1
  %this1 = load ptr, ptr %this.addr, align 8
  call void @_ZN4llvh22ilist_node_with_parentIN6hermes11InstructionENS1_10BasicBlockEJEEC2Ev(ptr noundef nonnull align 8 dereferenceable(16) %this1) #6
  %0 = getelementptr inbounds i8, ptr %this1, i64 16
  %1 = load i8, ptr %kind.addr, align 1
  call void @_ZN6hermes5ValueC2ENS_9ValueKindE(ptr noundef nonnull align 8 dereferenceable(40) %0, i8 noundef zeroext %1)
  %Parent = getelementptr inbounds %"class.hermes::Instruction", ptr %this1, i32 0, i32 2
  store ptr null, ptr %Parent, align 8
  %Operands = getelementptr inbounds %"class.hermes::Instruction", ptr %this1, i32 0, i32 3
  call void @_ZN4llvh11SmallVectorISt4pairIPN6hermes5ValueEjELj2EEC2Ev(ptr noundef nonnull align 8 dereferenceable(48) %Operands)
  %SourceLevelScope = getelementptr inbounds %"class.hermes::Instruction", ptr %this1, i32 0, i32 4
  store ptr null, ptr %SourceLevelScope, align 8
  %location_ = getelementptr inbounds %"class.hermes::Instruction", ptr %this1, i32 0, i32 5
  call void @llvm.memset.p0.i64(ptr align 8 %location_, i8 0, i64 8, i1 false)
  call void @_ZN4llvh5SMLocC2Ev(ptr noundef nonnull align 8 dereferenceable(8) %location_) #6
  %statementIndex_ = getelementptr inbounds %"class.hermes::Instruction", ptr %this1, i32 0, i32 6
  store i32 0, ptr %statementIndex_, align 8
  ret void
}

; Function Attrs: mustprogress nounwind uwtable
define linkonce_odr hidden noundef i64 @_ZNK4llvh15SmallVectorBase4sizeEv(ptr noundef nonnull align 8 dereferenceable(16) %this) #0 comdat align 2 {
entry:
  %this.addr = alloca ptr, align 8
  store ptr %this, ptr %this.addr, align 8
  %this1 = load ptr, ptr %this.addr, align 8
  %Size = getelementptr inbounds %"class.llvh::SmallVectorBase", ptr %this1, i32 0, i32 1
  %0 = load i32, ptr %Size, align 8
  %conv = zext i32 %0 to i64
  ret i64 %conv
}

; Function Attrs: mustprogress nounwind uwtable
define linkonce_odr hidden void @_ZN6hermes14TerminatorInstC2ENS_9ValueKindE(ptr noundef nonnull align 8 dereferenceable(132) %this, i8 noundef zeroext %K) unnamed_addr #0 comdat align 2 {
entry:
  %this.addr = alloca ptr, align 8
  %K.addr = alloca i8, align 1
  store ptr %this, ptr %this.addr, align 8
  store i8 %K, ptr %K.addr, align 1
  %this1 = load ptr, ptr %this.addr, align 8
  %0 = load i8, ptr %K.addr, align 1
  call void @_ZN6hermes11InstructionC2ENS_9ValueKindE(ptr noundef nonnull align 8 dereferenceable(132) %this1, i8 noundef zeroext %0)
  ret void
}

; Function Attrs: mustprogress nounwind uwtable
define hidden void @_ZN6hermes13SwitchImmInstC2EPNS_5ValueEPNS_10BasicBlockEPNS_13LiteralNumberES6_RKN4llvh11SmallVectorIS6_Lj8EEERKNS8_IS4_Lj8EEE(ptr noundef nonnull align 8 dereferenceable(132) %this, ptr noundef %input, ptr noundef %defaultBlock, ptr noundef %minValue, ptr noundef %size, ptr noundef nonnull align 8 dereferenceable(80) %values, ptr noundef nonnull align 8 dereferenceable(80) %blocks) unnamed_addr #0 align 2 {
entry:
  %this.addr.i15 = alloca ptr, align 8
  %this.addr.i13 = alloca ptr, align 8
  %this.addr.i8 = alloca ptr, align 8
  %idx.addr.i9 = alloca i64, align 8
  %this.addr.i = alloca ptr, align 8
  %idx.addr.i = alloca i64, align 8
  %this.addr = alloca ptr, align 8
  %input.addr = alloca ptr, align 8
  %defaultBlock.addr = alloca ptr, align 8
  %minValue.addr = alloca ptr, align 8
  %size.addr = alloca ptr, align 8
  %values.addr = alloca ptr, align 8
  %blocks.addr = alloca ptr, align 8
  %i = alloca i64, align 8
  %e = alloca i64, align 8
  store ptr %this, ptr %this.addr, align 8
  store ptr %input, ptr %input.addr, align 8
  store ptr %defaultBlock, ptr %defaultBlock.addr, align 8
  store ptr %minValue, ptr %minValue.addr, align 8
  store ptr %size, ptr %size.addr, align 8
  store ptr %values, ptr %values.addr, align 8
  store ptr %blocks, ptr %blocks.addr, align 8
  %this1 = load ptr, ptr %this.addr, align 8
  call void @_ZN6hermes14TerminatorInstC2ENS_9ValueKindE(ptr noundef nonnull align 8 dereferenceable(132) %this1, i8 noundef zeroext 87)
  %0 = load ptr, ptr %input.addr, align 8
  call void @_ZN6hermes11Instruction11pushOperandEPNS_5ValueE(ptr noundef nonnull align 8 dereferenceable(132) %this1, ptr noundef %0)
  %1 = load ptr, ptr %defaultBlock.addr, align 8
  %2 = icmp eq ptr %1, null
  br i1 %2, label %cast.end, label %cast.notnull

cast.notnull:                                     ; preds = %entry
  %add.ptr = getelementptr inbounds i8, ptr %1, i64 16
  br label %cast.end

cast.end:                                         ; preds = %cast.notnull, %entry
  %cast.result = phi ptr [ %add.ptr, %cast.notnull ], [ null, %entry ]
  call void @_ZN6hermes11Instruction11pushOperandEPNS_5ValueE(ptr noundef nonnull align 8 dereferenceable(132) %this1, ptr noundef %cast.result)
  %3 = load ptr, ptr %minValue.addr, align 8
  call void @_ZN6hermes11Instruction11pushOperandEPNS_5ValueE(ptr noundef nonnull align 8 dereferenceable(132) %this1, ptr noundef %3)
  %4 = load ptr, ptr %size.addr, align 8
  call void @_ZN6hermes11Instruction11pushOperandEPNS_5ValueE(ptr noundef nonnull align 8 dereferenceable(132) %this1, ptr noundef %4)
  store i64 0, ptr %i, align 8
  %5 = load ptr, ptr %values.addr, align 8
  %call = call noundef i64 @_ZNK4llvh15SmallVectorBase4sizeEv(ptr noundef nonnull align 8 dereferenceable(16) %5)
  store i64 %call, ptr %e, align 8
  br label %for.cond

for.cond:                                         ; preds = %for.inc, %cast.end
  %6 = load i64, ptr %i, align 8
  %7 = load i64, ptr %e, align 8
  %cmp = icmp ult i64 %6, %7
  br i1 %cmp, label %for.body, label %for.end

for.body:                                         ; preds = %for.cond
  %8 = load ptr, ptr %values.addr, align 8
  %9 = load i64, ptr %i, align 8
  store ptr %8, ptr %this.addr.i8, align 8
  store i64 %9, ptr %idx.addr.i9, align 8
  %this1.i10 = load ptr, ptr %this.addr.i8, align 8
  store ptr %this1.i10, ptr %this.addr.i15, align 8
  %this1.i16 = load ptr, ptr %this.addr.i15, align 8
  %10 = load ptr, ptr %this1.i16, align 8
  %11 = load i64, ptr %idx.addr.i9, align 8
  %arrayidx.i12 = getelementptr inbounds ptr, ptr %10, i64 %11
  %12 = load ptr, ptr %arrayidx.i12, align 8
  call void @_ZN6hermes11Instruction11pushOperandEPNS_5ValueE(ptr noundef nonnull align 8 dereferenceable(132) %this1, ptr noundef %12)
  %13 = load ptr, ptr %blocks.addr, align 8
  %14 = load i64, ptr %i, align 8
  store ptr %13, ptr %this.addr.i, align 8
  store i64 %14, ptr %idx.addr.i, align 8
  %this1.i = load ptr, ptr %this.addr.i, align 8
  store ptr %this1.i, ptr %this.addr.i13, align 8
  %this1.i14 = load ptr, ptr %this.addr.i13, align 8
  %15 = load ptr, ptr %this1.i14, align 8
  %16 = load i64, ptr %idx.addr.i, align 8
  %arrayidx.i = getelementptr inbounds ptr, ptr %15, i64 %16
  %17 = load ptr, ptr %arrayidx.i, align 8
  %18 = icmp eq ptr %17, null
  br i1 %18, label %cast.end6, label %cast.notnull4

cast.notnull4:                                    ; preds = %for.body
  %add.ptr5 = getelementptr inbounds i8, ptr %17, i64 16
  br label %cast.end6

cast.end6:                                        ; preds = %cast.notnull4, %for.body
  %cast.result7 = phi ptr [ %add.ptr5, %cast.notnull4 ], [ null, %for.body ]
  call void @_ZN6hermes11Instruction11pushOperandEPNS_5ValueE(ptr noundef nonnull align 8 dereferenceable(132) %this1, ptr noundef %cast.result7)
  br label %for.inc

for.inc:                                          ; preds = %cast.end6
  %19 = load i64, ptr %i, align 8
  %inc = add i64 %19, 1
  store i64 %inc, ptr %i, align 8
  br label %for.cond, !llvm.loop !10

for.end:                                          ; preds = %for.cond
  ret void
}