; Function Attrs: mustprogress nounwind uwtable
define hidden void @_ZN6hermes13SwitchImmInstC2EPNS_5ValueEPNS_10BasicBlockEPNS_13LiteralNumberES6_RKN4llvh11SmallVectorIS6_Lj8EEERKNS8_IS4_Lj8EEE(ptr noundef nonnull align 8 dereferenceable(132) initializes((0, 16), (18, 22)) %this, ptr noundef %input, ptr noundef %defaultBlock, ptr noundef %minValue, ptr noundef %size, ptr noundef nonnull readonly align 8 captures(none) dereferenceable(80) %values, ptr noundef nonnull readonly align 8 captures(none) dereferenceable(80) %blocks) unnamed_addr #0 align 2 {
entry:
  tail call void @llvm.memset.p0.i64(ptr noundef nonnull align 8 dereferenceable(132) %this, i8 0, i64 16, i1 false)
  %0 = getelementptr inbounds nuw i8, ptr %this, i64 16
  %valueType.i.i.i = getelementptr inbounds nuw i8, ptr %this, i64 18
  store i16 1023, ptr %valueType.i.i.i, align 2
  %numBitmask_.i.i.i.i = getelementptr inbounds nuw i8, ptr %this, i64 20
  store i16 7, ptr %numBitmask_.i.i.i.i, align 4
  %Users.i.i.i = getelementptr inbounds nuw i8, ptr %this, i64 24
  %add.ptr.i.i.i.i.i.i.i.i = getelementptr inbounds nuw i8, ptr %this, i64 40
  store ptr %add.ptr.i.i.i.i.i.i.i.i, ptr %Users.i.i.i, align 8
  %Size.i.i.i.i.i.i.i.i = getelementptr inbounds nuw i8, ptr %this, i64 32
  store i32 0, ptr %Size.i.i.i.i.i.i.i.i, align 8
  %Capacity2.i.i.i.i.i.i.i.i = getelementptr inbounds nuw i8, ptr %this, i64 36
  store i32 2, ptr %Capacity2.i.i.i.i.i.i.i.i, align 4
  store i8 87, ptr %0, align 8
  %Parent.i.i = getelementptr inbounds nuw i8, ptr %this, i64 56
  store ptr null, ptr %Parent.i.i, align 8
  %Operands.i.i = getelementptr inbounds nuw i8, ptr %this, i64 64
  %add.ptr.i.i.i.i.i.i.i = getelementptr inbounds nuw i8, ptr %this, i64 80
  store ptr %add.ptr.i.i.i.i.i.i.i, ptr %Operands.i.i, align 8
  %Size.i.i.i.i.i.i.i = getelementptr inbounds nuw i8, ptr %this, i64 72
  store i32 0, ptr %Size.i.i.i.i.i.i.i, align 8
  %Capacity2.i.i.i.i.i.i.i = getelementptr inbounds nuw i8, ptr %this, i64 76
  store i32 2, ptr %Capacity2.i.i.i.i.i.i.i, align 4
  %SourceLevelScope.i.i = getelementptr inbounds nuw i8, ptr %this, i64 112
  tail call void @llvm.memset.p0.i64(ptr noundef nonnull align 8 dereferenceable(20) %SourceLevelScope.i.i, i8 0, i64 20, i1 false)
  tail call void @_ZN6hermes11Instruction11pushOperandEPNS_5ValueE(ptr noundef nonnull align 8 dereferenceable(132) %this, ptr noundef %input) #15
  %1 = icmp eq ptr %defaultBlock, null
  %add.ptr = getelementptr inbounds nuw i8, ptr %defaultBlock, i64 16
  %spec.select = select i1 %1, ptr null, ptr %add.ptr
  tail call void @_ZN6hermes11Instruction11pushOperandEPNS_5ValueE(ptr noundef nonnull align 8 dereferenceable(132) %this, ptr noundef %spec.select) #15
  tail call void @_ZN6hermes11Instruction11pushOperandEPNS_5ValueE(ptr noundef nonnull align 8 dereferenceable(132) %this, ptr noundef %minValue) #15
  tail call void @_ZN6hermes11Instruction11pushOperandEPNS_5ValueE(ptr noundef nonnull align 8 dereferenceable(132) %this, ptr noundef %size) #15
  %Size.i = getelementptr inbounds nuw i8, ptr %values, i64 8
  %2 = load i32, ptr %Size.i, align 8
  %conv.i = zext i32 %2 to i64
  %cmp6.not = icmp eq i32 %2, 0
  br i1 %cmp6.not, label %for.end, label %for.body

for.body:                                         ; preds = %entry, %for.body
  %i.07 = phi i64 [ %inc, %for.body ], [ 0, %entry ]
  %3 = load ptr, ptr %values, align 8
  %arrayidx.i12 = getelementptr inbounds nuw ptr, ptr %3, i64 %i.07
  %4 = load ptr, ptr %arrayidx.i12, align 8
  tail call void @_ZN6hermes11Instruction11pushOperandEPNS_5ValueE(ptr noundef nonnull align 8 dereferenceable(132) %this, ptr noundef %4) #15
  %5 = load ptr, ptr %blocks, align 8
  %arrayidx.i = getelementptr inbounds nuw ptr, ptr %5, i64 %i.07
  %6 = load ptr, ptr %arrayidx.i, align 8
  %7 = icmp eq ptr %6, null
  %add.ptr5 = getelementptr inbounds nuw i8, ptr %6, i64 16
  %spec.select1 = select i1 %7, ptr null, ptr %add.ptr5
  tail call void @_ZN6hermes11Instruction11pushOperandEPNS_5ValueE(ptr noundef nonnull align 8 dereferenceable(132) %this, ptr noundef %spec.select1) #15
  %inc = add nuw nsw i64 %i.07, 1
  %exitcond.not = icmp eq i64 %inc, %conv.i
  br i1 %exitcond.not, label %for.end, label %for.body, !llvm.loop !10

for.end:                                          ; preds = %for.body, %entry
  ret void
}